; Function Attrs: mustprogress uwtable
define void @_ZN5dtm_t4haltEi(ptr nocapture noundef nonnull align 8 dereferenceable(928) %0, i32 noundef %1) local_unnamed_addr #0 align 2 {
  %3 = getelementptr inbounds i8, ptr %0, i64 892
  %4 = load i8, ptr %3, align 4
  %5 = and i8 %4, 1
  %.not = icmp eq i8 %5, 0
  br i1 %.not, label %11, label %6

6:                                                ; preds = %2
  %7 = getelementptr inbounds i8, ptr %0, i64 872
  store i64 8589934608, ptr %7, align 8
  %.sroa.22.0..sroa_idx.i.i = getelementptr inbounds i8, ptr %0, i64 880
  store i32 1, ptr %.sroa.22.0..sroa_idx.i.i, align 8
  %8 = getelementptr inbounds i8, ptr %0, i64 728
  %9 = load ptr, ptr %8, align 8
  tail call void @_ZN9context_t9switch_toEv(ptr noundef nonnull align 8 dereferenceable(32) %9)
  store i64 4294967313, ptr %7, align 8
  store i32 0, ptr %.sroa.22.0..sroa_idx.i.i, align 8
  %10 = load ptr, ptr %8, align 8
  tail call void @_ZN9context_t9switch_toEv(ptr noundef nonnull align 8 dereferenceable(32) %10)
  br label %11

11:                                               ; preds = %6, %2
  %12 = shl nsw i32 %1, 26
  %13 = and i32 %12, 67108864
  %14 = or disjoint i32 %13, -2147483647
  %15 = getelementptr inbounds i8, ptr %0, i64 872
  store i64 8589934608, ptr %15, align 8
  %.sroa.22.0..sroa_idx.i.i8 = getelementptr inbounds i8, ptr %0, i64 880
  store i32 %14, ptr %.sroa.22.0..sroa_idx.i.i8, align 8
  %16 = getelementptr inbounds i8, ptr %0, i64 728
  %17 = load ptr, ptr %16, align 8
  tail call void @_ZN9context_t9switch_toEv(ptr noundef nonnull align 8 dereferenceable(32) %17)
  %18 = getelementptr inbounds i8, ptr %0, i64 888
  br label %19

19:                                               ; preds = %19, %11
  store i64 4294967313, ptr %15, align 8
  store i32 0, ptr %.sroa.22.0..sroa_idx.i.i8, align 8
  %20 = load ptr, ptr %16, align 8
  tail call void @_ZN9context_t9switch_toEv(ptr noundef nonnull align 8 dereferenceable(32) %20)
  %21 = load i32, ptr %18, align 8
  %22 = and i32 %21, 512
  %23 = icmp eq i32 %22, 0
  br i1 %23, label %19, label %24, !llvm.loop !6

24:                                               ; preds = %19
  %25 = or disjoint i32 %13, 1
  store i64 8589934608, ptr %15, align 8
  store i32 %25, ptr %.sroa.22.0..sroa_idx.i.i8, align 8
  %26 = load ptr, ptr %16, align 8
  tail call void @_ZN9context_t9switch_toEv(ptr noundef nonnull align 8 dereferenceable(32) %26)
  store i64 4294967313, ptr %15, align 8
  store i32 0, ptr %.sroa.22.0..sroa_idx.i.i8, align 8
  %27 = load ptr, ptr %16, align 8
  tail call void @_ZN9context_t9switch_toEv(ptr noundef nonnull align 8 dereferenceable(32) %27)
  %28 = getelementptr inbounds i8, ptr %0, i64 924
  store i32 %1, ptr %28, align 4
  ret void
}